target datalayout = "e-m:e-p270:32:32-p271:32:32-p272:64:64-i64:64-i128:128-f80:128-n8:16:32:64-S128"
target triple = "x86_64-pc-linux-gnu"

%struct.Min_Cube_t_ = type { ptr, i32, [1 x i32] }

@.str = private unnamed_addr constant [2 x i8] c"\0A\00", align 1
@stdout = external global ptr, align 8
@.str.2 = private unnamed_addr constant [53 x i8] c"Error: Min_CubesDistOne() looks at two equal cubes!\0A\00", align 1

; Function Attrs: nounwind uwtable
define internal i32 @Min_CubesDistOne(ptr noundef %0, ptr noundef %1, ptr noundef %2) #0 {
  %4 = alloca i32, align 4
  %5 = alloca ptr, align 8
  %6 = alloca ptr, align 8
  %7 = alloca ptr, align 8
  %8 = alloca i32, align 4
  %9 = alloca i32, align 4
  %10 = alloca i32, align 4
  store ptr %0, ptr %5, align 8
  store ptr %1, ptr %6, align 8
  store ptr %2, ptr %7, align 8
  store i32 0, ptr %10, align 4
  store i32 0, ptr %9, align 4
  br label %11

11:                                               ; preds = %75, %3
  %12 = load i32, ptr %9, align 4
  %13 = load ptr, ptr %5, align 8
  %14 = getelementptr inbounds %struct.Min_Cube_t_, ptr %13, i32 0, i32 1
  %15 = load i32, ptr %14, align 8
  %16 = lshr i32 %15, 10
  %17 = and i32 %16, 4095
  %18 = icmp slt i32 %12, %17
  br i1 %18, label %19, label %78

19:                                               ; preds = %11
  %20 = load ptr, ptr %5, align 8
  %21 = getelementptr inbounds %struct.Min_Cube_t_, ptr %20, i32 0, i32 2
  %22 = load i32, ptr %9, align 4
  %23 = sext i32 %22 to i64
  %24 = getelementptr inbounds [1 x i32], ptr %21, i64 0, i64 %23
  %25 = load i32, ptr %24, align 4
  %26 = load ptr, ptr %6, align 8
  %27 = getelementptr inbounds %struct.Min_Cube_t_, ptr %26, i32 0, i32 2
  %28 = load i32, ptr %9, align 4
  %29 = sext i32 %28 to i64
  %30 = getelementptr inbounds [1 x i32], ptr %27, i64 0, i64 %29
  %31 = load i32, ptr %30, align 4
  %32 = xor i32 %25, %31
  store i32 %32, ptr %8, align 4
  %33 = load i32, ptr %8, align 4
  %34 = icmp eq i32 %33, 0
  br i1 %34, label %35, label %45

35:                                               ; preds = %19
  %36 = load ptr, ptr %7, align 8
  %37 = icmp ne ptr %36, null
  br i1 %37, label %38, label %44

38:                                               ; preds = %35
  %39 = load ptr, ptr %7, align 8
  %40 = getelementptr inbounds %struct.Min_Cube_t_, ptr %39, i32 0, i32 2
  %41 = load i32, ptr %9, align 4
  %42 = sext i32 %41 to i64
  %43 = getelementptr inbounds [1 x i32], ptr %40, i64 0, i64 %42
  store i32 0, ptr %43, align 4
  br label %44

44:                                               ; preds = %38, %35
  br label %75

45:                                               ; preds = %19
  %46 = load i32, ptr %10, align 4
  %47 = icmp ne i32 %46, 0
  br i1 %47, label %48, label %49

48:                                               ; preds = %45
  store i32 0, ptr %4, align 4
  br label %89

49:                                               ; preds = %45
  %50 = load i32, ptr %8, align 4
  %51 = load i32, ptr %8, align 4
  %52 = lshr i32 %51, 1
  %53 = or i32 %50, %52
  %54 = and i32 %53, 1431655765
  store i32 %54, ptr %8, align 4
  %55 = load i32, ptr %8, align 4
  %56 = load i32, ptr %8, align 4
  %57 = sub i32 %56, 1
  %58 = and i32 %55, %57
  %59 = icmp ugt i32 %58, 0
  br i1 %59, label %60, label %61

60:                                               ; preds = %49
  store i32 0, ptr %4, align 4
  br label %89

61:                                               ; preds = %49
  %62 = load ptr, ptr %7, align 8
  %63 = icmp ne ptr %62, null
  br i1 %63, label %64, label %74

64:                                               ; preds = %61
  %65 = load i32, ptr %8, align 4
  %66 = load i32, ptr %8, align 4
  %67 = shl i32 %66, 1
  %68 = or i32 %65, %67
  %69 = load ptr, ptr %7, align 8
  %70 = getelementptr inbounds %struct.Min_Cube_t_, ptr %69, i32 0, i32 2
  %71 = load i32, ptr %9, align 4
  %72 = sext i32 %71 to i64
  %73 = getelementptr inbounds [1 x i32], ptr %70, i64 0, i64 %72
  store i32 %68, ptr %73, align 4
  br label %74

74:                                               ; preds = %64, %61
  store i32 1, ptr %10, align 4
  br label %75

75:                                               ; preds = %74, %44
  %76 = load i32, ptr %9, align 4
  %77 = add nsw i32 %76, 1
  store i32 %77, ptr %9, align 4
  br label %11, !llvm.loop !16

78:                                               ; preds = %11
  %79 = load i32, ptr %10, align 4
  %80 = icmp eq i32 %79, 0
  br i1 %80, label %81, label %88

81:                                               ; preds = %78
  %82 = call i32 (ptr, ...) @printf(ptr noundef @.str)
  %83 = load ptr, ptr @stdout, align 8
  %84 = load ptr, ptr %5, align 8
  call void @Min_CubeWrite(ptr noundef %83, ptr noundef %84)
  %85 = load ptr, ptr @stdout, align 8
  %86 = load ptr, ptr %6, align 8
  call void @Min_CubeWrite(ptr noundef %85, ptr noundef %86)
  %87 = call i32 (ptr, ...) @printf(ptr noundef @.str.2)
  br label %88

88:                                               ; preds = %81, %78
  store i32 1, ptr %4, align 4
  br label %89

89:                                               ; preds = %88, %60, %48
  %90 = load i32, ptr %4, align 4
  ret i32 %90
}