; Function Attrs: nounwind uwtable
define internal fastcc range(i32 0, 2) i32 @Min_CubesDistOne(ptr noundef %0, ptr noundef nonnull %1, ptr noundef writeonly %2) unnamed_addr #0 {
  %4 = getelementptr inbounds nuw i8, ptr %0, i64 8
  %5 = load i32, ptr %4, align 8
  %6 = and i32 %5, 4193280
  %.not43 = icmp eq i32 %6, 0
  br i1 %.not43, label %._crit_edge.thread, label %.lr.ph

.lr.ph:                                           ; preds = %3
  %7 = getelementptr inbounds nuw i8, ptr %0, i64 12
  %8 = getelementptr inbounds nuw i8, ptr %1, i64 12
  %.not30 = icmp eq ptr %2, null
  %9 = getelementptr inbounds nuw i8, ptr %2, i64 12
  br i1 %.not30, label %.lr.ph.split.us.split.us.preheader, label %.lr.ph.split.split

.lr.ph.split.us.split.us.preheader:               ; preds = %.lr.ph
  %10 = lshr i32 %5, 10
  %11 = and i32 %10, 4095
  %12 = zext nneg i32 %11 to i64
  br label %.lr.ph.split.us.split.us

.lr.ph.split.us.split.us:                         ; preds = %.lr.ph.split.us.split.us.preheader, %25
  %indvars.iv47 = phi i64 [ 0, %.lr.ph.split.us.split.us.preheader ], [ %indvars.iv.next48, %25 ]
  %.034.us.us = phi i32 [ 0, %.lr.ph.split.us.split.us.preheader ], [ %.1.us.us, %25 ]
  %13 = getelementptr inbounds nuw [1 x i32], ptr %7, i64 0, i64 %indvars.iv47
  %14 = load i32, ptr %13, align 4
  %15 = getelementptr inbounds nuw [1 x i32], ptr %8, i64 0, i64 %indvars.iv47
  %16 = load i32, ptr %15, align 4
  %17 = xor i32 %16, %14
  %18 = icmp eq i32 %14, %16
  br i1 %18, label %25, label %19

19:                                               ; preds = %.lr.ph.split.us.split.us
  %.not.us.us = icmp eq i32 %.034.us.us, 0
  br i1 %.not.us.us, label %20, label %.loopexit

20:                                               ; preds = %19
  %21 = lshr i32 %17, 1
  %22 = or i32 %21, %17
  %23 = and i32 %22, 1431655765
  %24 = tail call range(i32 0, 17) i32 @llvm.ctpop.i32(i32 %23)
  %.not29.us.us = icmp samesign ult i32 %24, 2
  br i1 %.not29.us.us, label %25, label %.loopexit

25:                                               ; preds = %.lr.ph.split.us.split.us, %20
  %.1.us.us = phi i32 [ 1, %20 ], [ %.034.us.us, %.lr.ph.split.us.split.us ]
  %indvars.iv.next48 = add nuw nsw i64 %indvars.iv47, 1
  %26 = icmp samesign ult i64 %indvars.iv.next48, %12
  br i1 %26, label %.lr.ph.split.us.split.us, label %._crit_edge, !llvm.loop !20

.lr.ph.split.split:                               ; preds = %.lr.ph, %41
  %indvars.iv = phi i64 [ %indvars.iv.next, %41 ], [ 0, %.lr.ph ]
  %.034 = phi i32 [ %.1, %41 ], [ 0, %.lr.ph ]
  %27 = getelementptr inbounds nuw [1 x i32], ptr %7, i64 0, i64 %indvars.iv
  %28 = load i32, ptr %27, align 4
  %29 = getelementptr inbounds nuw [1 x i32], ptr %8, i64 0, i64 %indvars.iv
  %30 = load i32, ptr %29, align 4
  %31 = xor i32 %30, %28
  %32 = icmp eq i32 %28, %30
  br i1 %32, label %41, label %33

33:                                               ; preds = %.lr.ph.split.split
  %.not = icmp eq i32 %.034, 0
  br i1 %.not, label %34, label %.loopexit

34:                                               ; preds = %33
  %35 = lshr i32 %31, 1
  %36 = or i32 %35, %31
  %37 = and i32 %36, 1431655765
  %38 = tail call range(i32 0, 17) i32 @llvm.ctpop.i32(i32 %37)
  %.not29 = icmp samesign ult i32 %38, 2
  br i1 %.not29, label %39, label %.loopexit

39:                                               ; preds = %34
  %40 = mul nuw i32 %37, 3
  br label %41

41:                                               ; preds = %.lr.ph.split.split, %39
  %.sink = phi i32 [ %40, %39 ], [ 0, %.lr.ph.split.split ]
  %.1 = phi i32 [ 1, %39 ], [ %.034, %.lr.ph.split.split ]
  %42 = getelementptr inbounds nuw [1 x i32], ptr %9, i64 0, i64 %indvars.iv
  store i32 %.sink, ptr %42, align 4
  %indvars.iv.next = add nuw nsw i64 %indvars.iv, 1
  %43 = load i32, ptr %4, align 8
  %44 = lshr i32 %43, 10
  %45 = and i32 %44, 4095
  %46 = zext nneg i32 %45 to i64
  %47 = icmp samesign ult i64 %indvars.iv.next, %46
  br i1 %47, label %.lr.ph.split.split, label %._crit_edge, !llvm.loop !20

._crit_edge:                                      ; preds = %41, %25
  %.0.lcssa = phi i32 [ %.1.us.us, %25 ], [ %.1, %41 ]
  %48 = icmp eq i32 %.0.lcssa, 0
  br i1 %48, label %._crit_edge.thread, label %.loopexit

._crit_edge.thread:                               ; preds = %3, %._crit_edge
  %putchar = tail call i32 @putchar(i32 10)
  %49 = load ptr, ptr @stdout, align 8
  tail call void @Min_CubeWrite(ptr noundef %49, ptr noundef nonnull %0) #4
  %50 = load ptr, ptr @stdout, align 8
  tail call void @Min_CubeWrite(ptr noundef %50, ptr noundef nonnull %1) #4
  %puts = tail call i32 @puts(ptr nonnull dereferenceable(1) @str)
  br label %.loopexit

.loopexit:                                        ; preds = %34, %33, %19, %20, %._crit_edge, %._crit_edge.thread
  %.025 = phi i32 [ 1, %._crit_edge.thread ], [ 1, %._crit_edge ], [ 0, %20 ], [ 0, %19 ], [ 0, %33 ], [ 0, %34 ]
  ret i32 %.025
}